; Function Attrs: nounwind uwtable
define void @Gia_ManSupExperiment(ptr noundef %0, ptr noundef readonly captures(none) %1) local_unnamed_addr #6 {
  %3 = tail call ptr @Gia_ManSupStart(i32 noundef 16)
  %4 = getelementptr inbounds nuw i8, ptr %3, i64 24
  store ptr %0, ptr %4, align 8, !tbaa !37
  %5 = getelementptr i8, ptr %1, i64 4
  %.val21 = load i32, ptr %5, align 4, !tbaa !27
  %6 = icmp sgt i32 %.val21, 1
  br i1 %6, label %.lr.ph, label %._crit_edge

.lr.ph:                                           ; preds = %2
  %7 = getelementptr i8, ptr %1, i64 8
  %8 = getelementptr i8, ptr %0, i64 32
  %9 = getelementptr i8, ptr %0, i64 72
  br label %10

10:                                               ; preds = %.lr.ph, %10
  %indvars.iv = phi i64 [ 0, %.lr.ph ], [ %indvars.iv.next, %10 ]
  %11 = trunc nuw nsw i64 %indvars.iv to i32
  tail call void (i32, ptr, ...) @Abc_Print(i32 poison, ptr noundef nonnull @.str.3, i32 noundef %11)
  %12 = shl nuw nsw i64 %indvars.iv, 1
  %.val15 = load ptr, ptr %7, align 8, !tbaa !30
  %13 = getelementptr inbounds nuw i32, ptr %.val15, i64 %12
  %14 = load i32, ptr %13, align 4, !tbaa !21
  %.val17 = load ptr, ptr %8, align 8, !tbaa !38
  %.val18 = load ptr, ptr %9, align 8, !tbaa !59
  %15 = getelementptr i8, ptr %.val18, i64 8
  %.val18.val = load ptr, ptr %15, align 8, !tbaa !30
  %16 = sext i32 %14 to i64
  %17 = getelementptr inbounds i32, ptr %.val18.val, i64 %16
  %18 = load i32, ptr %17, align 4, !tbaa !21
  %19 = sext i32 %18 to i64
  %20 = getelementptr inbounds %struct.Gia_Obj_t_, ptr %.val17, i64 %19
  %21 = or disjoint i64 %12, 1
  %22 = getelementptr inbounds nuw i32, ptr %.val15, i64 %21
  %23 = load i32, ptr %22, align 4, !tbaa !21
  %24 = sext i32 %23 to i64
  %25 = getelementptr inbounds i32, ptr %.val18.val, i64 %24
  %26 = load i32, ptr %25, align 4, !tbaa !21
  %27 = sext i32 %26 to i64
  %28 = getelementptr inbounds %struct.Gia_Obj_t_, ptr %.val17, i64 %27
  %29 = load i64, ptr %20, align 4
  %30 = and i64 %29, 536870911
  %31 = sub nsw i64 0, %30
  %32 = getelementptr inbounds %struct.Gia_Obj_t_, ptr %20, i64 %31
  %33 = lshr i64 %29, 29
  %34 = and i64 %33, 1
  %35 = ptrtoint ptr %32 to i64
  %36 = xor i64 %34, %35
  %37 = inttoptr i64 %36 to ptr
  %38 = load i64, ptr %28, align 4
  %39 = and i64 %38, 536870911
  %40 = sub nsw i64 0, %39
  %41 = getelementptr inbounds %struct.Gia_Obj_t_, ptr %28, i64 %40
  %42 = lshr i64 %38, 29
  %43 = and i64 %42, 1
  %44 = ptrtoint ptr %41 to i64
  %45 = xor i64 %43, %44
  %46 = inttoptr i64 %45 to ptr
  tail call void @Gia_ManSupExperimentOne(ptr noundef %3, ptr noundef %37, ptr noundef %46)
  %indvars.iv.next = add nuw nsw i64 %indvars.iv, 1
  %.val = load i32, ptr %5, align 4, !tbaa !27
  %47 = sdiv i32 %.val, 2
  %48 = sext i32 %47 to i64
  %49 = icmp slt i64 %indvars.iv.next, %48
  br i1 %49, label %10, label %._crit_edge, !llvm.loop !60

._crit_edge:                                      ; preds = %10, %2
  tail call void @Gia_ManSupStop(ptr noundef %3)
  ret void
}